target datalayout = "e-m:e-p270:32:32-p271:32:32-p272:64:64-i64:64-i128:128-f80:128-n8:16:32:64-S128"
target triple = "x86_64-pc-linux-gnu"

%struct.decode_as_s = type { ptr, ptr, i32, i32, ptr, ptr, ptr, ptr, ptr, ptr, ptr }
%struct.reassembly_table = type { ptr, ptr, ptr, ptr, ptr }
%struct.reassembly_table_functions = type { ptr, ptr, ptr, ptr, ptr, ptr }

@.str = private unnamed_addr constant [8 x i8] c"ber.oid\00", align 1
@.str.1 = private unnamed_addr constant [11 x i8] c"ber.syntax\00", align 1
@syntax_table = internal global ptr null, align 8
@ber_syntax_dissector_table = internal global ptr null, align 8
@ber_oid_dissector_table = internal global ptr null, align 8
@decode_unexpected = internal global i8 0, align 1
@show_internal_ber_fields = internal global i8 0, align 1
@decode_warning_leading_zero_bits = internal global i8 0, align 1
@proto_register_ber.ett = internal global [9 x ptr] [ptr @ett_ber_octet_string, ptr @ett_ber_reassembled_octet_string, ptr @ett_ber_primitive, ptr @ett_ber_unknown, ptr @ett_ber_SEQUENCE, ptr @ett_ber_EXTERNAL, ptr @ett_ber_T_encoding, ptr @ett_ber_fragment, ptr @ett_ber_fragments], align 16
@proto_register_ber.ber_da = internal global %struct.decode_as_s { ptr @.str.271, ptr @.str.1, i32 1, i32 0, ptr @proto_register_ber.ber_da_values, ptr null, ptr null, ptr @ber_populate_list, ptr @ber_decode_as_reset, ptr @ber_decode_as_change, ptr null }, align 8
@.str.271 = private unnamed_addr constant [4 x i8] c"ber\00", align 1
@.str.272 = private unnamed_addr constant [11 x i8] c"OID Tables\00", align 1
@.str.273 = private unnamed_addr constant [4 x i8] c"oid\00", align 1
@oid_users = internal global ptr null, align 8
@num_oid_users = internal global i32 0, align 4
@.str.274 = private unnamed_addr constant [20 x i8] c"ChObjectIdentifiers\00", align 1
@.str.275 = private unnamed_addr constant [35 x i8] c"Basic Encoding Rules (ASN.1 X.690)\00", align 1
@.str.276 = private unnamed_addr constant [4 x i8] c"BER\00", align 1
@proto_ber = internal global i32 0, align 4
@ber_handle = internal global ptr null, align 8
@.str.277 = private unnamed_addr constant [9 x i8] c"ber_file\00", align 1
@ber_file_handle = internal global ptr null, align 8
@.str.278 = private unnamed_addr constant [15 x i8] c"show_internals\00", align 1
@.str.279 = private unnamed_addr constant [39 x i8] c"Show internal BER encapsulation tokens\00", align 1
@.str.280 = private unnamed_addr constant [106 x i8] c"Whether the dissector should also display internal ASN.1 BER details such as Identifier and Length fields\00", align 1
@.str.281 = private unnamed_addr constant [18 x i8] c"decode_unexpected\00", align 1
@.str.282 = private unnamed_addr constant [43 x i8] c"Decode unexpected tags as BER encoded data\00", align 1
@.str.283 = private unnamed_addr constant [78 x i8] c"Whether the dissector should decode unexpected tags as ASN.1 BER encoded data\00", align 1
@.str.284 = private unnamed_addr constant [19 x i8] c"decode_octetstring\00", align 1
@.str.285 = private unnamed_addr constant [40 x i8] c"Decode OCTET STRING as BER encoded data\00", align 1
@.str.286 = private unnamed_addr constant [94 x i8] c"Whether the dissector should try decoding OCTET STRINGs as constructed ASN.1 BER encoded data\00", align 1
@decode_octetstring_as_ber = internal global i8 0, align 1
@.str.287 = private unnamed_addr constant [17 x i8] c"decode_primitive\00", align 1
@.str.288 = private unnamed_addr constant [37 x i8] c"Decode Primitive as BER encoded data\00", align 1
@.str.289 = private unnamed_addr constant [98 x i8] c"Whether the dissector should try decoding unknown primitive as constructed ASN.1 BER encoded data\00", align 1
@decode_primitive_as_ber = internal global i8 0, align 1
@.str.290 = private unnamed_addr constant [20 x i8] c"warn_too_many_bytes\00", align 1
@.str.291 = private unnamed_addr constant [51 x i8] c"Warn if too many leading zero bits in encoded data\00", align 1
@.str.292 = private unnamed_addr constant [69 x i8] c"Whether the dissector should warn if excessive leading zero (0) bits\00", align 1
@.str.293 = private unnamed_addr constant [10 x i8] c"oid_table\00", align 1
@.str.294 = private unnamed_addr constant [19 x i8] c"Object Identifiers\00", align 1
@.str.295 = private unnamed_addr constant [91 x i8] c"A table that provides names for object identifiers and the syntax of any associated values\00", align 1
@.str.296 = private unnamed_addr constant [8 x i8] c"BER OID\00", align 1
@.str.297 = private unnamed_addr constant [11 x i8] c"BER syntax\00", align 1
@.str.298 = private unnamed_addr constant [6 x i8] c"ASN.1\00", align 1
@octet_segment_reassembly_table = internal global %struct.reassembly_table zeroinitializer, align 8
@addresses_reassembly_table_functions = external constant %struct.reassembly_table_functions, align 8

; Function Attrs: null_pointer_is_valid sspstrong uwtable
define void @register_ber_syntax_dissector(ptr noundef %0, i32 noundef %1, ptr noundef %2) #0 {
  %4 = alloca ptr, align 8
  %5 = alloca i32, align 4
  %6 = alloca ptr, align 8
  %7 = alloca ptr, align 8
  store ptr %0, ptr %4, align 8
  store i32 %1, ptr %5, align 4
  store ptr %2, ptr %6, align 8
  call void @llvm.lifetime.start.p0(i64 8, ptr %7) #12
  %8 = load ptr, ptr %6, align 8
  %9 = load i32, ptr %5, align 4
  %10 = load ptr, ptr %4, align 8
  %11 = call ptr @create_dissector_handle_with_name_and_description(ptr noundef %8, i32 noundef %9, ptr noundef null, ptr noundef %10)
  store ptr %11, ptr %7, align 8
  %12 = load ptr, ptr %4, align 8
  %13 = load ptr, ptr %7, align 8
  call void @dissector_add_string(ptr noundef @.str.1, ptr noundef %12, ptr noundef %13)
  call void @llvm.lifetime.end.p0(i64 8, ptr %7) #12
  ret void
}

; Function Attrs: null_pointer_is_valid sspstrong uwtable
define hidden void @proto_register_ber() #0 {
  %1 = alloca ptr, align 8
  %2 = alloca ptr, align 8
  %3 = alloca ptr, align 8
  call void @llvm.lifetime.start.p0(i64 8, ptr %1) #12
  call void @llvm.lifetime.start.p0(i64 8, ptr %2) #12
  call void @llvm.lifetime.start.p0(i64 8, ptr %3) #12
  %4 = call ptr @uat_new(ptr noundef @.str.272, i64 noundef 24, ptr noundef @.str.273, i1 noundef zeroext false, ptr noundef @oid_users, ptr noundef @num_oid_users, i32 noundef 1, ptr noundef @.str.274, ptr noundef @oid_copy_cb, ptr noundef null, ptr noundef @oid_free_cb, ptr noundef @ber_update_oids, ptr noundef null, ptr noundef @users_flds)
  store ptr %4, ptr %3, align 8
  %5 = call i32 @proto_register_protocol(ptr noundef @.str.275, ptr noundef @.str.276, ptr noundef @.str.271)
  store i32 %5, ptr @proto_ber, align 4
  %6 = load i32, ptr @proto_ber, align 4
  %7 = call ptr @register_dissector(ptr noundef @.str.271, ptr noundef @dissect_ber, i32 noundef %6)
  store ptr %7, ptr @ber_handle, align 8
  %8 = load i32, ptr @proto_ber, align 4
  %9 = call ptr @register_dissector(ptr noundef @.str.277, ptr noundef @dissect_ber_file, i32 noundef %8)
  store ptr %9, ptr @ber_file_handle, align 8
  %10 = load i32, ptr @proto_ber, align 4
  call void @proto_register_field_array(i32 noundef %10, ptr noundef @proto_register_ber.hf, i32 noundef 61)
  call void @proto_register_subtree_array(ptr noundef @proto_register_ber.ett, i32 noundef 9)
  %11 = load i32, ptr @proto_ber, align 4
  %12 = call ptr @expert_register_protocol(i32 noundef %11)
  store ptr %12, ptr %2, align 8
  %13 = load ptr, ptr %2, align 8
  call void @expert_register_field_array(ptr noundef %13, ptr noundef @proto_register_ber.ei, i32 noundef 34)
  %14 = load i32, ptr @proto_ber, align 4
  call void @proto_set_cant_toggle(i32 noundef %14)
  %15 = load i32, ptr @proto_ber, align 4
  %16 = call ptr @prefs_register_protocol(i32 noundef %15, ptr noundef null)
  store ptr %16, ptr %1, align 8
  %17 = load ptr, ptr %1, align 8
  call void @prefs_register_bool_preference(ptr noundef %17, ptr noundef @.str.278, ptr noundef @.str.279, ptr noundef @.str.280, ptr noundef @show_internal_ber_fields)
  %18 = load ptr, ptr %1, align 8
  call void @prefs_register_bool_preference(ptr noundef %18, ptr noundef @.str.281, ptr noundef @.str.282, ptr noundef @.str.283, ptr noundef @decode_unexpected)
  %19 = load ptr, ptr %1, align 8
  call void @prefs_register_bool_preference(ptr noundef %19, ptr noundef @.str.284, ptr noundef @.str.285, ptr noundef @.str.286, ptr noundef @decode_octetstring_as_ber)
  %20 = load ptr, ptr %1, align 8
  call void @prefs_register_bool_preference(ptr noundef %20, ptr noundef @.str.287, ptr noundef @.str.288, ptr noundef @.str.289, ptr noundef @decode_primitive_as_ber)
  %21 = load ptr, ptr %1, align 8
  call void @prefs_register_bool_preference(ptr noundef %21, ptr noundef @.str.290, ptr noundef @.str.291, ptr noundef @.str.292, ptr noundef @decode_warning_leading_zero_bits)
  %22 = load ptr, ptr %1, align 8
  %23 = load ptr, ptr %3, align 8
  call void @prefs_register_uat_preference(ptr noundef %22, ptr noundef @.str.293, ptr noundef @.str.294, ptr noundef @.str.295, ptr noundef %23)
  %24 = load i32, ptr @proto_ber, align 4
  %25 = call ptr @register_dissector_table(ptr noundef @.str, ptr noundef @.str.296, i32 noundef %24, i32 noundef 26, i32 noundef 0)
  store ptr %25, ptr @ber_oid_dissector_table, align 8
  %26 = load i32, ptr @proto_ber, align 4
  %27 = call ptr @register_dissector_table(ptr noundef @.str.1, ptr noundef @.str.297, i32 noundef %26, i32 noundef 26, i32 noundef 0)
  store ptr %27, ptr @ber_syntax_dissector_table, align 8
  %28 = call ptr @g_hash_table_new_full(ptr noundef @g_str_hash, ptr noundef @g_str_equal, ptr noundef @g_free, ptr noundef @g_free)
  store ptr %28, ptr @syntax_table, align 8
  %29 = load i32, ptr @proto_ber, align 4
  call void @register_ber_syntax_dissector(ptr noundef @.str.298, i32 noundef %29, ptr noundef @dissect_ber_syntax)
  call void @reassembly_table_register(ptr noundef @octet_segment_reassembly_table, ptr noundef @addresses_reassembly_table_functions)
  call void @register_shutdown_routine(ptr noundef @ber_shutdown)
  call void @register_decode_as(ptr noundef @proto_register_ber.ber_da)
  call void @llvm.lifetime.end.p0(i64 8, ptr %3) #12
  call void @llvm.lifetime.end.p0(i64 8, ptr %2) #12
  call void @llvm.lifetime.end.p0(i64 8, ptr %1) #12
  ret void
}