; Function Attrs: null_pointer_is_valid sspstrong uwtable
define hidden void @proto_register_ber() local_unnamed_addr #0 {
  %1 = tail call ptr @uat_new(ptr noundef nonnull @.str.272, i64 noundef 24, ptr noundef nonnull @.str.273, i1 noundef zeroext false, ptr noundef nonnull @oid_users, ptr noundef nonnull @num_oid_users, i32 noundef 1, ptr noundef nonnull @.str.274, ptr noundef nonnull @oid_copy_cb, ptr noundef null, ptr noundef nonnull @oid_free_cb, ptr noundef nonnull @ber_update_oids, ptr noundef null, ptr noundef nonnull @users_flds)
  %2 = tail call i32 @proto_register_protocol(ptr noundef nonnull @.str.275, ptr noundef nonnull @.str.276, ptr noundef nonnull @.str.271)
  store i32 %2, ptr @proto_ber, align 4
  %3 = tail call ptr @register_dissector(ptr noundef nonnull @.str.271, ptr noundef nonnull @dissect_ber, i32 noundef %2)
  store ptr %3, ptr @ber_handle, align 8
  %4 = load i32, ptr @proto_ber, align 4
  %5 = tail call ptr @register_dissector(ptr noundef nonnull @.str.277, ptr noundef nonnull @dissect_ber_file, i32 noundef %4)
  store ptr %5, ptr @ber_file_handle, align 8
  %6 = load i32, ptr @proto_ber, align 4
  tail call void @proto_register_field_array(i32 noundef %6, ptr noundef nonnull @proto_register_ber.hf, i32 noundef 61)
  tail call void @proto_register_subtree_array(ptr noundef nonnull @proto_register_ber.ett, i32 noundef 9)
  %7 = load i32, ptr @proto_ber, align 4
  %8 = tail call ptr @expert_register_protocol(i32 noundef %7)
  tail call void @expert_register_field_array(ptr noundef %8, ptr noundef nonnull @proto_register_ber.ei, i32 noundef 34)
  %9 = load i32, ptr @proto_ber, align 4
  tail call void @proto_set_cant_toggle(i32 noundef %9)
  %10 = load i32, ptr @proto_ber, align 4
  %11 = tail call ptr @prefs_register_protocol(i32 noundef %10, ptr noundef null)
  tail call void @prefs_register_bool_preference(ptr noundef %11, ptr noundef nonnull @.str.278, ptr noundef nonnull @.str.279, ptr noundef nonnull @.str.280, ptr noundef nonnull @show_internal_ber_fields)
  tail call void @prefs_register_bool_preference(ptr noundef %11, ptr noundef nonnull @.str.281, ptr noundef nonnull @.str.282, ptr noundef nonnull @.str.283, ptr noundef nonnull @decode_unexpected)
  tail call void @prefs_register_bool_preference(ptr noundef %11, ptr noundef nonnull @.str.284, ptr noundef nonnull @.str.285, ptr noundef nonnull @.str.286, ptr noundef nonnull @decode_octetstring_as_ber)
  tail call void @prefs_register_bool_preference(ptr noundef %11, ptr noundef nonnull @.str.287, ptr noundef nonnull @.str.288, ptr noundef nonnull @.str.289, ptr noundef nonnull @decode_primitive_as_ber)
  tail call void @prefs_register_bool_preference(ptr noundef %11, ptr noundef nonnull @.str.290, ptr noundef nonnull @.str.291, ptr noundef nonnull @.str.292, ptr noundef nonnull @decode_warning_leading_zero_bits)
  tail call void @prefs_register_uat_preference(ptr noundef %11, ptr noundef nonnull @.str.293, ptr noundef nonnull @.str.294, ptr noundef nonnull @.str.295, ptr noundef %1)
  %12 = load i32, ptr @proto_ber, align 4
  %13 = tail call ptr @register_dissector_table(ptr noundef nonnull @.str, ptr noundef nonnull @.str.296, i32 noundef %12, i32 noundef 26, i32 noundef 0)
  store ptr %13, ptr @ber_oid_dissector_table, align 8
  %14 = load i32, ptr @proto_ber, align 4
  %15 = tail call ptr @register_dissector_table(ptr noundef nonnull @.str.1, ptr noundef nonnull @.str.297, i32 noundef %14, i32 noundef 26, i32 noundef 0)
  store ptr %15, ptr @ber_syntax_dissector_table, align 8
  %16 = tail call ptr @g_hash_table_new_full(ptr noundef nonnull @g_str_hash, ptr noundef nonnull @g_str_equal, ptr noundef nonnull @g_free, ptr noundef nonnull @g_free)
  store ptr %16, ptr @syntax_table, align 8
  %17 = load i32, ptr @proto_ber, align 4
  %18 = tail call ptr @create_dissector_handle_with_name_and_description(ptr noundef nonnull @dissect_ber_syntax, i32 noundef %17, ptr noundef null, ptr noundef nonnull @.str.298)
  tail call void @dissector_add_string(ptr noundef nonnull @.str.1, ptr noundef nonnull @.str.298, ptr noundef %18)
  tail call void @reassembly_table_register(ptr noundef nonnull @octet_segment_reassembly_table, ptr noundef nonnull @addresses_reassembly_table_functions)
  tail call void @register_shutdown_routine(ptr noundef nonnull @ber_shutdown)
  tail call void @register_decode_as(ptr noundef nonnull @proto_register_ber.ber_da)
  ret void
}